; Function Attrs: mustprogress uwtable
define hidden void @_ZN6spacer10iuc_solver6pop_bgEj(ptr nocapture noundef nonnull align 8 dereferenceable(398) %this, i32 noundef %n) local_unnamed_addr #3 align 2 {
entry:
  %cmp = icmp eq i32 %n, 0
  br i1 %cmp, label %return, label %if.end

if.end:                                           ; preds = %entry
  %m_assumptions = getelementptr inbounds i8, ptr %this, i64 208
  %m_nodes.i = getelementptr inbounds i8, ptr %this, i64 216
  %0 = load ptr, ptr %m_nodes.i, align 8
  %cmp.i.i = icmp eq ptr %0, null
  br i1 %cmp.i.i, label %_ZNK15ref_vector_coreI4expr19ref_manager_wrapperIS0_11ast_managerEE4sizeEv.exit.thread, label %_ZNK15ref_vector_coreI4expr19ref_manager_wrapperIS0_11ast_managerEE4sizeEv.exit

_ZNK15ref_vector_coreI4expr19ref_manager_wrapperIS0_11ast_managerEE4sizeEv.exit.thread: ; preds = %if.end
  %m_first_assumption33 = getelementptr inbounds i8, ptr %this, i64 224
  br label %if.end6.thread

_ZNK15ref_vector_coreI4expr19ref_manager_wrapperIS0_11ast_managerEE4sizeEv.exit: ; preds = %if.end
  %arrayidx.i.i = getelementptr inbounds i8, ptr %0, i64 -4
  %1 = load i32, ptr %arrayidx.i.i, align 4
  %m_first_assumption = getelementptr inbounds i8, ptr %this, i64 224
  %2 = load i32, ptr %m_first_assumption, align 8
  %cmp2 = icmp ugt i32 %1, %2
  br i1 %cmp2, label %for.body.i.i.preheader, label %if.end6.thread42

if.end6.thread42:                                 ; preds = %_ZNK15ref_vector_coreI4expr19ref_manager_wrapperIS0_11ast_managerEE4sizeEv.exit
  %spec.select44 = tail call i32 @llvm.usub.sat.i32(i32 %2, i32 %n)
  store i32 %spec.select44, ptr %m_first_assumption, align 8
  br label %_ZN6vectorIP4exprLb0EjE3endEv.exit.i9

for.body.i.i.preheader:                           ; preds = %_ZNK15ref_vector_coreI4expr19ref_manager_wrapperIS0_11ast_managerEE4sizeEv.exit
  %3 = zext i32 %1 to i64
  %add.ptr.i.i = getelementptr inbounds ptr, ptr %0, i64 %3
  %idx.ext.i = zext i32 %2 to i64
  %add.ptr.i = getelementptr inbounds ptr, ptr %0, i64 %idx.ext.i
  br label %for.body.i.i

for.body.i.i:                                     ; preds = %for.body.i.i.preheader, %_ZN15ref_vector_coreI4expr19ref_manager_wrapperIS0_11ast_managerEE7dec_refEPS0_.exit.i.i
  %it.04.i.i = phi ptr [ %incdec.ptr.i.i, %_ZN15ref_vector_coreI4expr19ref_manager_wrapperIS0_11ast_managerEE7dec_refEPS0_.exit.i.i ], [ %add.ptr.i, %for.body.i.i.preheader ]
  %4 = load ptr, ptr %it.04.i.i, align 8
  %5 = load ptr, ptr %m_assumptions, align 8
  %tobool.not.i.i.i.i.i = icmp eq ptr %4, null
  br i1 %tobool.not.i.i.i.i.i, label %_ZN15ref_vector_coreI4expr19ref_manager_wrapperIS0_11ast_managerEE7dec_refEPS0_.exit.i.i, label %if.then.i.i.i.i.i

if.then.i.i.i.i.i:                                ; preds = %for.body.i.i
  %m_ref_count.i.i.i.i.i.i = getelementptr inbounds i8, ptr %4, i64 8
  %6 = load i32, ptr %m_ref_count.i.i.i.i.i.i, align 4
  %dec.i.i.i.i.i.i = add i32 %6, -1
  store i32 %dec.i.i.i.i.i.i, ptr %m_ref_count.i.i.i.i.i.i, align 4
  %cmp.i.i.i.i.i = icmp eq i32 %dec.i.i.i.i.i.i, 0
  br i1 %cmp.i.i.i.i.i, label %if.then2.i.i.i.i.i, label %_ZN15ref_vector_coreI4expr19ref_manager_wrapperIS0_11ast_managerEE7dec_refEPS0_.exit.i.i

if.then2.i.i.i.i.i:                               ; preds = %if.then.i.i.i.i.i
  tail call void @_ZN11ast_manager11delete_nodeEP3ast(ptr noundef nonnull align 8 dereferenceable(976) %5, ptr noundef nonnull %4)
  br label %_ZN15ref_vector_coreI4expr19ref_manager_wrapperIS0_11ast_managerEE7dec_refEPS0_.exit.i.i

_ZN15ref_vector_coreI4expr19ref_manager_wrapperIS0_11ast_managerEE7dec_refEPS0_.exit.i.i: ; preds = %if.then2.i.i.i.i.i, %if.then.i.i.i.i.i, %for.body.i.i
  %incdec.ptr.i.i = getelementptr inbounds i8, ptr %it.04.i.i, i64 8
  %cmp.i.i6 = icmp ult ptr %incdec.ptr.i.i, %add.ptr.i.i
  br i1 %cmp.i.i6, label %for.body.i.i, label %_ZN15ref_vector_coreI4expr19ref_manager_wrapperIS0_11ast_managerEE13dec_range_refEPKPS0_S7_.exit.i, !llvm.loop !4

_ZN15ref_vector_coreI4expr19ref_manager_wrapperIS0_11ast_managerEE13dec_range_refEPKPS0_S7_.exit.i: ; preds = %_ZN15ref_vector_coreI4expr19ref_manager_wrapperIS0_11ast_managerEE7dec_refEPS0_.exit.i.i
  %.pre.i = load ptr, ptr %m_nodes.i, align 8
  %tobool.not.i.i = icmp eq ptr %.pre.i, null
  br i1 %tobool.not.i.i, label %if.end6.thread, label %if.end6

if.end6.thread:                                   ; preds = %_ZN15ref_vector_coreI4expr19ref_manager_wrapperIS0_11ast_managerEE13dec_range_refEPKPS0_S7_.exit.i, %_ZNK15ref_vector_coreI4expr19ref_manager_wrapperIS0_11ast_managerEE4sizeEv.exit.thread
  %m_first_assumption35.ph = phi ptr [ %m_first_assumption, %_ZN15ref_vector_coreI4expr19ref_manager_wrapperIS0_11ast_managerEE13dec_range_refEPKPS0_S7_.exit.i ], [ %m_first_assumption33, %_ZNK15ref_vector_coreI4expr19ref_manager_wrapperIS0_11ast_managerEE4sizeEv.exit.thread ]
  %7 = load i32, ptr %m_first_assumption35.ph, align 8
  %spec.select39 = tail call i32 @llvm.usub.sat.i32(i32 %7, i32 %n)
  store i32 %spec.select39, ptr %m_first_assumption35.ph, align 8
  br label %return

if.end6:                                          ; preds = %_ZN15ref_vector_coreI4expr19ref_manager_wrapperIS0_11ast_managerEE13dec_range_refEPKPS0_S7_.exit.i
  %arrayidx.i.i5 = getelementptr inbounds i8, ptr %.pre.i, i64 -4
  store i32 %2, ptr %arrayidx.i.i5, align 4
  %.pr.pre = load ptr, ptr %m_nodes.i, align 8
  %.pre = load i32, ptr %m_first_assumption, align 8
  %spec.select = tail call i32 @llvm.usub.sat.i32(i32 %.pre, i32 %n)
  store i32 %spec.select, ptr %m_first_assumption, align 8
  %cmp.i.i.i8 = icmp eq ptr %.pr.pre, null
  br i1 %cmp.i.i.i8, label %return, label %_ZN6vectorIP4exprLb0EjE3endEv.exit.i9

_ZN6vectorIP4exprLb0EjE3endEv.exit.i9:            ; preds = %if.end6.thread42, %if.end6
  %spec.select47 = phi i32 [ %spec.select44, %if.end6.thread42 ], [ %spec.select, %if.end6 ]
  %.pr46 = phi ptr [ %0, %if.end6.thread42 ], [ %.pr.pre, %if.end6 ]
  %arrayidx.i.i.i12 = getelementptr inbounds i8, ptr %.pr46, i64 -4
  %8 = load i32, ptr %arrayidx.i.i.i12, align 4
  %9 = zext i32 %8 to i64
  %add.ptr.i.i13 = getelementptr inbounds ptr, ptr %.pr46, i64 %9
  %cmp3.i.i14 = icmp ugt i32 %8, %spec.select47
  br i1 %cmp3.i.i14, label %for.body.i.i17.preheader, label %if.then.i.i15

for.body.i.i17.preheader:                         ; preds = %_ZN6vectorIP4exprLb0EjE3endEv.exit.i9
  %idx.ext.i10 = zext i32 %spec.select47 to i64
  %add.ptr.i11 = getelementptr inbounds ptr, ptr %.pr46, i64 %idx.ext.i10
  br label %for.body.i.i17

for.body.i.i17:                                   ; preds = %for.body.i.i17.preheader, %_ZN15ref_vector_coreI4expr19ref_manager_wrapperIS0_11ast_managerEE7dec_refEPS0_.exit.i.i24
  %it.04.i.i18 = phi ptr [ %incdec.ptr.i.i25, %_ZN15ref_vector_coreI4expr19ref_manager_wrapperIS0_11ast_managerEE7dec_refEPS0_.exit.i.i24 ], [ %add.ptr.i11, %for.body.i.i17.preheader ]
  %10 = load ptr, ptr %it.04.i.i18, align 8
  %11 = load ptr, ptr %m_assumptions, align 8
  %tobool.not.i.i.i.i.i19 = icmp eq ptr %10, null
  br i1 %tobool.not.i.i.i.i.i19, label %_ZN15ref_vector_coreI4expr19ref_manager_wrapperIS0_11ast_managerEE7dec_refEPS0_.exit.i.i24, label %if.then.i.i.i.i.i20

if.then.i.i.i.i.i20:                              ; preds = %for.body.i.i17
  %m_ref_count.i.i.i.i.i.i21 = getelementptr inbounds i8, ptr %10, i64 8
  %12 = load i32, ptr %m_ref_count.i.i.i.i.i.i21, align 4
  %dec.i.i.i.i.i.i22 = add i32 %12, -1
  store i32 %dec.i.i.i.i.i.i22, ptr %m_ref_count.i.i.i.i.i.i21, align 4
  %cmp.i.i.i.i.i23 = icmp eq i32 %dec.i.i.i.i.i.i22, 0
  br i1 %cmp.i.i.i.i.i23, label %if.then2.i.i.i.i.i30, label %_ZN15ref_vector_coreI4expr19ref_manager_wrapperIS0_11ast_managerEE7dec_refEPS0_.exit.i.i24

if.then2.i.i.i.i.i30:                             ; preds = %if.then.i.i.i.i.i20
  tail call void @_ZN11ast_manager11delete_nodeEP3ast(ptr noundef nonnull align 8 dereferenceable(976) %11, ptr noundef nonnull %10)
  br label %_ZN15ref_vector_coreI4expr19ref_manager_wrapperIS0_11ast_managerEE7dec_refEPS0_.exit.i.i24

_ZN15ref_vector_coreI4expr19ref_manager_wrapperIS0_11ast_managerEE7dec_refEPS0_.exit.i.i24: ; preds = %if.then2.i.i.i.i.i30, %if.then.i.i.i.i.i20, %for.body.i.i17
  %incdec.ptr.i.i25 = getelementptr inbounds i8, ptr %it.04.i.i18, i64 8
  %cmp.i.i26 = icmp ult ptr %incdec.ptr.i.i25, %add.ptr.i.i13
  br i1 %cmp.i.i26, label %for.body.i.i17, label %_ZN15ref_vector_coreI4expr19ref_manager_wrapperIS0_11ast_managerEE13dec_range_refEPKPS0_S7_.exit.i27, !llvm.loop !4

_ZN15ref_vector_coreI4expr19ref_manager_wrapperIS0_11ast_managerEE13dec_range_refEPKPS0_S7_.exit.i27: ; preds = %_ZN15ref_vector_coreI4expr19ref_manager_wrapperIS0_11ast_managerEE7dec_refEPS0_.exit.i.i24
  %.pre.i28 = load ptr, ptr %m_nodes.i, align 8
  %tobool.not.i.i29 = icmp eq ptr %.pre.i28, null
  br i1 %tobool.not.i.i29, label %return, label %if.then.i.i15

if.then.i.i15:                                    ; preds = %_ZN15ref_vector_coreI4expr19ref_manager_wrapperIS0_11ast_managerEE13dec_range_refEPKPS0_S7_.exit.i27, %_ZN6vectorIP4exprLb0EjE3endEv.exit.i9
  %13 = phi ptr [ %.pre.i28, %_ZN15ref_vector_coreI4expr19ref_manager_wrapperIS0_11ast_managerEE13dec_range_refEPKPS0_S7_.exit.i27 ], [ %.pr46, %_ZN6vectorIP4exprLb0EjE3endEv.exit.i9 ]
  %arrayidx.i.i16 = getelementptr inbounds i8, ptr %13, i64 -4
  store i32 %spec.select47, ptr %arrayidx.i.i16, align 4
  br label %return

return:                                           ; preds = %if.then.i.i15, %_ZN15ref_vector_coreI4expr19ref_manager_wrapperIS0_11ast_managerEE13dec_range_refEPKPS0_S7_.exit.i27, %if.end6, %if.end6.thread, %entry
  ret void
}